target datalayout = "e-m:e-p270:32:32-p271:32:32-p272:64:64-i64:64-i128:128-f80:128-n8:16:32:64-S128"
target triple = "x86_64-pc-linux-gnu"

%struct.ident_t = type { i32, i32, i32, i32, ptr }

@1 = private unnamed_addr constant %struct.ident_t { i32 0, i32 514, i32 0, i32 22, ptr @0 }, align 8

; Function Attrs: alwaysinline norecurse nounwind uwtable
define internal void @_ZNK4ncnn13Scale_x86_fma15forward_inplaceERSt6vectorINS_3MatESaIS2_EERKNS_6OptionE.omp_outlined.5(ptr noalias noundef %0, ptr noalias noundef %1, ptr noundef nonnull align 4 dereferenceable(4) %2, ptr noundef nonnull align 4 dereferenceable(4) %3, ptr noundef nonnull align 8 dereferenceable(8) %4, ptr noundef nonnull align 8 dereferenceable(8) %5) #14 {
  %7 = alloca ptr, align 8
  %8 = alloca ptr, align 8
  %9 = alloca ptr, align 8
  %10 = alloca ptr, align 8
  %11 = alloca ptr, align 8
  %12 = alloca ptr, align 8
  %13 = alloca i32, align 4
  %14 = alloca i32, align 4
  %15 = alloca i32, align 4
  %16 = alloca i32, align 4
  %17 = alloca i32, align 4
  %18 = alloca i32, align 4
  %19 = alloca i32, align 4
  %20 = alloca i32, align 4
  %21 = alloca i32, align 4
  %22 = alloca i32, align 4
  store ptr %0, ptr %7, align 8, !tbaa !54
  store ptr %1, ptr %8, align 8, !tbaa !54
  store ptr %2, ptr %9, align 8, !tbaa !54
  store ptr %3, ptr %10, align 8, !tbaa !54
  store ptr %4, ptr %11, align 8, !tbaa !55
  store ptr %5, ptr %12, align 8, !tbaa !55
  %23 = load ptr, ptr %9, align 8, !tbaa !54
  %24 = load ptr, ptr %10, align 8, !tbaa !54
  %25 = load ptr, ptr %11, align 8, !tbaa !55
  %26 = load ptr, ptr %12, align 8, !tbaa !55
  call void @llvm.lifetime.start.p0(i64 4, ptr %13) #7
  call void @llvm.lifetime.start.p0(i64 4, ptr %14) #7
  %27 = load i32, ptr %24, align 4, !tbaa !25
  store i32 %27, ptr %14, align 4, !tbaa !25
  call void @llvm.lifetime.start.p0(i64 4, ptr %15) #7
  %28 = load i32, ptr %23, align 4, !tbaa !25
  store i32 %28, ptr %15, align 4, !tbaa !25
  call void @llvm.lifetime.start.p0(i64 4, ptr %16) #7
  %29 = load i32, ptr %15, align 4, !tbaa !25
  %30 = load i32, ptr %14, align 4, !tbaa !25
  %31 = sub i32 %29, %30
  %32 = sub i32 %31, 1
  %33 = add i32 %32, 1
  %34 = udiv i32 %33, 1
  %35 = sub i32 %34, 1
  store i32 %35, ptr %16, align 4, !tbaa !25
  call void @llvm.lifetime.start.p0(i64 4, ptr %17) #7
  %36 = load i32, ptr %14, align 4, !tbaa !25
  store i32 %36, ptr %17, align 4, !tbaa !25
  call void @llvm.lifetime.end.p0(i64 4, ptr %17) #7
  %37 = load i32, ptr %14, align 4, !tbaa !25
  %38 = load i32, ptr %15, align 4, !tbaa !25
  %39 = icmp slt i32 %37, %38
  br i1 %39, label %40, label %88

40:                                               ; preds = %6
  call void @llvm.lifetime.start.p0(i64 4, ptr %18) #7
  store i32 0, ptr %18, align 4, !tbaa !25
  call void @llvm.lifetime.start.p0(i64 4, ptr %19) #7
  %41 = load i32, ptr %16, align 4, !tbaa !25
  store i32 %41, ptr %19, align 4, !tbaa !25
  call void @llvm.lifetime.start.p0(i64 4, ptr %20) #7
  store i32 1, ptr %20, align 4, !tbaa !25
  call void @llvm.lifetime.start.p0(i64 4, ptr %21) #7
  store i32 0, ptr %21, align 4, !tbaa !25
  call void @llvm.lifetime.start.p0(i64 4, ptr %22) #7
  %42 = load ptr, ptr %7, align 8
  %43 = load i32, ptr %42, align 4, !tbaa !25
  call void @__kmpc_for_static_init_4u(ptr @1, i32 %43, i32 34, ptr %21, ptr %18, ptr %19, ptr %20, i32 1, i32 1)
  %44 = load i32, ptr %19, align 4, !tbaa !25
  %45 = load i32, ptr %16, align 4, !tbaa !25
  %46 = icmp ugt i32 %44, %45
  br i1 %46, label %47, label %49

47:                                               ; preds = %40
  %48 = load i32, ptr %16, align 4, !tbaa !25
  br label %51

49:                                               ; preds = %40
  %50 = load i32, ptr %19, align 4, !tbaa !25
  br label %51

51:                                               ; preds = %49, %47
  %52 = phi i32 [ %48, %47 ], [ %50, %49 ]
  store i32 %52, ptr %19, align 4, !tbaa !25
  %53 = load i32, ptr %18, align 4, !tbaa !25
  store i32 %53, ptr %13, align 4, !tbaa !25
  br label %54

54:                                               ; preds = %81, %51
  %55 = load i32, ptr %13, align 4, !tbaa !25
  %56 = load i32, ptr %19, align 4, !tbaa !25
  %57 = add i32 %56, 1
  %58 = icmp ult i32 %55, %57
  br i1 %58, label %60, label %59

59:                                               ; preds = %54
  br label %84

60:                                               ; preds = %54
  %61 = load i32, ptr %14, align 4, !tbaa !25
  %62 = load i32, ptr %13, align 4, !tbaa !25
  %63 = mul i32 %62, 1
  %64 = add i32 %61, %63
  store i32 %64, ptr %22, align 4, !tbaa !25
  %65 = load ptr, ptr %25, align 8, !tbaa !31
  %66 = load i32, ptr %22, align 4, !tbaa !25
  %67 = sext i32 %66 to i64
  %68 = getelementptr inbounds float, ptr %65, i64 %67
  %69 = load float, ptr %68, align 4, !tbaa !62
  %70 = load ptr, ptr %26, align 8, !tbaa !31
  %71 = load i32, ptr %22, align 4, !tbaa !25
  %72 = sext i32 %71 to i64
  %73 = getelementptr inbounds float, ptr %70, i64 %72
  %74 = load float, ptr %73, align 4, !tbaa !62
  %75 = fmul fast float %69, %74
  %76 = load ptr, ptr %25, align 8, !tbaa !31
  %77 = load i32, ptr %22, align 4, !tbaa !25
  %78 = sext i32 %77 to i64
  %79 = getelementptr inbounds float, ptr %76, i64 %78
  store float %75, ptr %79, align 4, !tbaa !62
  br label %80

80:                                               ; preds = %60
  br label %81

81:                                               ; preds = %80
  %82 = load i32, ptr %13, align 4, !tbaa !25
  %83 = add i32 %82, 1
  store i32 %83, ptr %13, align 4, !tbaa !25
  br label %54

84:                                               ; preds = %59
  br label %85

85:                                               ; preds = %84
  %86 = load ptr, ptr %7, align 8
  %87 = load i32, ptr %86, align 4, !tbaa !25
  call void @__kmpc_for_static_fini(ptr @1, i32 %87)
  call void @llvm.lifetime.end.p0(i64 4, ptr %22) #7
  call void @llvm.lifetime.end.p0(i64 4, ptr %21) #7
  call void @llvm.lifetime.end.p0(i64 4, ptr %20) #7
  call void @llvm.lifetime.end.p0(i64 4, ptr %19) #7
  call void @llvm.lifetime.end.p0(i64 4, ptr %18) #7
  br label %88

88:                                               ; preds = %85, %6
  call void @llvm.lifetime.end.p0(i64 4, ptr %16) #7
  call void @llvm.lifetime.end.p0(i64 4, ptr %15) #7
  call void @llvm.lifetime.end.p0(i64 4, ptr %14) #7
  call void @llvm.lifetime.end.p0(i64 4, ptr %13) #7
  ret void
}