; Function Attrs: alwaysinline norecurse nounwind uwtable
define internal void @_ZNK4ncnn13Scale_x86_fma15forward_inplaceERSt6vectorINS_3MatESaIS2_EERKNS_6OptionE.omp_outlined.5(ptr noalias noundef readonly captures(none) %0, ptr noalias readnone captures(none) %1, ptr noundef nonnull readonly align 4 captures(none) dereferenceable(4) %2, ptr noundef nonnull readonly align 4 captures(none) dereferenceable(4) %3, ptr noundef nonnull readonly align 8 captures(none) dereferenceable(8) %4, ptr noundef nonnull readonly align 8 captures(none) dereferenceable(8) %5) #10 {
  %7 = alloca i32, align 4
  %8 = alloca i32, align 4
  %9 = alloca i32, align 4
  %10 = alloca i32, align 4
  %11 = load i32, ptr %3, align 4, !tbaa !23
  %12 = load i32, ptr %2, align 4, !tbaa !23
  %13 = icmp slt i32 %11, %12
  br i1 %13, label %14, label %34

14:                                               ; preds = %6
  %15 = xor i32 %11, -1
  %16 = add i32 %12, %15
  call void @llvm.lifetime.start.p0(i64 4, ptr nonnull %7) #6
  store i32 0, ptr %7, align 4, !tbaa !23
  call void @llvm.lifetime.start.p0(i64 4, ptr nonnull %8) #6
  store i32 %16, ptr %8, align 4, !tbaa !23
  call void @llvm.lifetime.start.p0(i64 4, ptr nonnull %9) #6
  store i32 1, ptr %9, align 4, !tbaa !23
  call void @llvm.lifetime.start.p0(i64 4, ptr nonnull %10) #6
  store i32 0, ptr %10, align 4, !tbaa !23
  %17 = load i32, ptr %0, align 4, !tbaa !23
  call void @__kmpc_for_static_init_4u(ptr nonnull @1, i32 %17, i32 34, ptr nonnull %10, ptr nonnull %7, ptr nonnull %8, ptr nonnull %9, i32 1, i32 1)
  %18 = load i32, ptr %8, align 4, !tbaa !23
  %19 = call i32 @llvm.umin.i32(i32 %18, i32 %16)
  store i32 %19, ptr %8, align 4, !tbaa !23
  %20 = load i32, ptr %7, align 4, !tbaa !23
  %21 = add i32 %19, 1
  %22 = icmp ult i32 %20, %21
  br i1 %22, label %.lr.ph, label %._crit_edge

.lr.ph:                                           ; preds = %14
  %23 = load ptr, ptr %4, align 8, !tbaa !28
  %24 = load ptr, ptr %5, align 8, !tbaa !28
  br label %25

25:                                               ; preds = %.lr.ph, %25
  %.021 = phi i32 [ %20, %.lr.ph ], [ %33, %25 ]
  %26 = add i32 %.021, %11
  %27 = sext i32 %26 to i64
  %28 = getelementptr inbounds float, ptr %23, i64 %27
  %29 = load float, ptr %28, align 4, !tbaa !50
  %30 = getelementptr inbounds float, ptr %24, i64 %27
  %31 = load float, ptr %30, align 4, !tbaa !50
  %32 = fmul fast float %31, %29
  store float %32, ptr %28, align 4, !tbaa !50
  %33 = add nuw i32 %.021, 1
  %exitcond.not = icmp eq i32 %.021, %19
  br i1 %exitcond.not, label %._crit_edge, label %25

._crit_edge:                                      ; preds = %25, %14
  call void @__kmpc_for_static_fini(ptr nonnull @1, i32 %17)
  call void @llvm.lifetime.end.p0(i64 4, ptr nonnull %10) #6
  call void @llvm.lifetime.end.p0(i64 4, ptr nonnull %9) #6
  call void @llvm.lifetime.end.p0(i64 4, ptr nonnull %8) #6
  call void @llvm.lifetime.end.p0(i64 4, ptr nonnull %7) #6
  br label %34

34:                                               ; preds = %._crit_edge, %6
  ret void
}